; ModuleID = '57/1083.c'
source_filename = "57/1083.c"
target datalayout = "e-m:e-p270:32:32-p271:32:32-p272:64:64-i64:64-f80:128-n8:16:32:64-S128"
target triple = "x86_64-pc-linux-gnu"

@.str = private unnamed_addr constant [3 x i8] c"%d\00", align 1
@.str.1 = private unnamed_addr constant [3 x i8] c"%s\00", align 1
@.str.2 = private unnamed_addr constant [3 x i8] c"%c\00", align 1
@.str.3 = private unnamed_addr constant [2 x i8] c"\0A\00", align 1

; Function Attrs: noinline nounwind uwtable
define dso_local i32 @main() #0 {
  %1 = alloca i32, align 4
  %2 = alloca [51 x [32 x i8]], align 16
  %3 = alloca i32, align 4
  %4 = alloca i32, align 4
  %5 = alloca i32, align 4
  %6 = alloca [100 x i32], align 16
  store i32 0, i32* %1, align 4
  %7 = call i32 (i8*, ...) @__isoc99_scanf(i8* getelementptr inbounds ([3 x i8], [3 x i8]* @.str, i64 0, i64 0), i32* %3)
  store i32 0, i32* %4, align 4
  br label %8

8:                                                ; preds = %18, %0
  %9 = load i32, i32* %4, align 4
  %10 = load i32, i32* %3, align 4
  %11 = icmp slt i32 %9, %10
  br i1 %11, label %12, label %21

12:                                               ; preds = %8
  %13 = load i32, i32* %4, align 4
  %14 = sext i32 %13 to i64
  %15 = getelementptr inbounds [51 x [32 x i8]], [51 x [32 x i8]]* %2, i64 0, i64 %14
  %16 = getelementptr inbounds [32 x i8], [32 x i8]* %15, i64 0, i64 0
  %17 = call i32 (i8*, ...) @__isoc99_scanf(i8* getelementptr inbounds ([3 x i8], [3 x i8]* @.str.1, i64 0, i64 0), i8* %16)
  br label %18

18:                                               ; preds = %12
  %19 = load i32, i32* %4, align 4
  %20 = add nsw i32 %19, 1
  store i32 %20, i32* %4, align 4
  br label %8

21:                                               ; preds = %8
  store i32 0, i32* %4, align 4
  br label %22

22:                                               ; preds = %132, %21
  %23 = load i32, i32* %4, align 4
  %24 = load i32, i32* %3, align 4
  %25 = icmp slt i32 %23, %24
  br i1 %25, label %26, label %135

26:                                               ; preds = %22
  %27 = load i32, i32* %4, align 4
  %28 = sext i32 %27 to i64
  %29 = getelementptr inbounds [51 x [32 x i8]], [51 x [32 x i8]]* %2, i64 0, i64 %28
  %30 = getelementptr inbounds [32 x i8], [32 x i8]* %29, i64 0, i64 0
  %31 = call i64 @strlen(i8* %30) #3
  %32 = trunc i64 %31 to i32
  store i32 %32, i32* %5, align 4
  %33 = load i32, i32* %4, align 4
  %34 = sext i32 %33 to i64
  %35 = getelementptr inbounds [51 x [32 x i8]], [51 x [32 x i8]]* %2, i64 0, i64 %34
  %36 = load i32, i32* %5, align 4
  %37 = sub nsw i32 %36, 1
  %38 = sext i32 %37 to i64
  %39 = getelementptr inbounds [32 x i8], [32 x i8]* %35, i64 0, i64 %38
  %40 = load i8, i8* %39, align 1
  %41 = sext i8 %40 to i32
  %42 = icmp eq i32 %41, 103
  br i1 %42, label %43, label %71

43:                                               ; preds = %26
  %44 = load i32, i32* %4, align 4
  %45 = sext i32 %44 to i64
  %46 = getelementptr inbounds [51 x [32 x i8]], [51 x [32 x i8]]* %2, i64 0, i64 %45
  %47 = load i32, i32* %5, align 4
  %48 = sub nsw i32 %47, 2
  %49 = sext i32 %48 to i64
  %50 = getelementptr inbounds [32 x i8], [32 x i8]* %46, i64 0, i64 %49
  %51 = load i8, i8* %50, align 1
  %52 = sext i8 %51 to i32
  %53 = icmp eq i32 %52, 110
  br i1 %53, label %54, label %70

54:                                               ; preds = %43
  %55 = load i32, i32* %4, align 4
  %56 = sext i32 %55 to i64
  %57 = getelementptr inbounds [51 x [32 x i8]], [51 x [32 x i8]]* %2, i64 0, i64 %56
  %58 = load i32, i32* %5, align 4
  %59 = sub nsw i32 %58, 3
  %60 = sext i32 %59 to i64
  %61 = getelementptr inbounds [32 x i8], [32 x i8]* %57, i64 0, i64 %60
  %62 = load i8, i8* %61, align 1
  %63 = sext i8 %62 to i32
  %64 = icmp eq i32 %63, 105
  br i1 %64, label %65, label %69

65:                                               ; preds = %54
  %66 = load i32, i32* %4, align 4
  %67 = sext i32 %66 to i64
  %68 = getelementptr inbounds [100 x i32], [100 x i32]* %6, i64 0, i64 %67
  store i32 1, i32* %68, align 4
  br label %69

69:                                               ; preds = %65, %54
  br label %70

70:                                               ; preds = %69, %43
  br label %131

71:                                               ; preds = %26
  %72 = load i32, i32* %4, align 4
  %73 = sext i32 %72 to i64
  %74 = getelementptr inbounds [51 x [32 x i8]], [51 x [32 x i8]]* %2, i64 0, i64 %73
  %75 = load i32, i32* %5, align 4
  %76 = sub nsw i32 %75, 1
  %77 = sext i32 %76 to i64
  %78 = getelementptr inbounds [32 x i8], [32 x i8]* %74, i64 0, i64 %77
  %79 = load i8, i8* %78, align 1
  %80 = sext i8 %79 to i32
  %81 = icmp eq i32 %80, 114
  br i1 %81, label %82, label %98

82:                                               ; preds = %71
  %83 = load i32, i32* %4, align 4
  %84 = sext i32 %83 to i64
  %85 = getelementptr inbounds [51 x [32 x i8]], [51 x [32 x i8]]* %2, i64 0, i64 %84
  %86 = load i32, i32* %5, align 4
  %87 = sub nsw i32 %86, 2
  %88 = sext i32 %87 to i64
  %89 = getelementptr inbounds [32 x i8], [32 x i8]* %85, i64 0, i64 %88
  %90 = load i8, i8* %89, align 1
  %91 = sext i8 %90 to i32
  %92 = icmp eq i32 %91, 101
  br i1 %92, label %93, label %97

93:                                               ; preds = %82
  %94 = load i32, i32* %4, align 4
  %95 = sext i32 %94 to i64
  %96 = getelementptr inbounds [100 x i32], [100 x i32]* %6, i64 0, i64 %95
  store i32 2, i32* %96, align 4
  br label %97

97:                                               ; preds = %93, %82
  br label %130

98:                                               ; preds = %71
  %99 = load i32, i32* %4, align 4
  %100 = sext i32 %99 to i64
  %101 = getelementptr inbounds [51 x [32 x i8]], [51 x [32 x i8]]* %2, i64 0, i64 %100
  %102 = load i32, i32* %5, align 4
  %103 = sub nsw i32 %102, 1
  %104 = sext i32 %103 to i64
  %105 = getelementptr inbounds [32 x i8], [32 x i8]* %101, i64 0, i64 %104
  %106 = load i8, i8* %105, align 1
  %107 = sext i8 %106 to i32
  %108 = icmp eq i32 %107, 121
  br i1 %108, label %109, label %125

109:                                              ; preds = %98
  %110 = load i32, i32* %4, align 4
  %111 = sext i32 %110 to i64
  %112 = getelementptr inbounds [51 x [32 x i8]], [51 x [32 x i8]]* %2, i64 0, i64 %111
  %113 = load i32, i32* %5, align 4
  %114 = sub nsw i32 %113, 2
  %115 = sext i32 %114 to i64
  %116 = getelementptr inbounds [32 x i8], [32 x i8]* %112, i64 0, i64 %115
  %117 = load i8, i8* %116, align 1
  %118 = sext i8 %117 to i32
  %119 = icmp eq i32 %118, 108
  br i1 %119, label %120, label %124

120:                                              ; preds = %109
  %121 = load i32, i32* %4, align 4
  %122 = sext i32 %121 to i64
  %123 = getelementptr inbounds [100 x i32], [100 x i32]* %6, i64 0, i64 %122
  store i32 3, i32* %123, align 4
  br label %124

124:                                              ; preds = %120, %109
  br label %129

125:                                              ; preds = %98
  %126 = load i32, i32* %4, align 4
  %127 = sext i32 %126 to i64
  %128 = getelementptr inbounds [100 x i32], [100 x i32]* %6, i64 0, i64 %127
  store i32 4, i32* %128, align 4
  br label %129

129:                                              ; preds = %125, %124
  br label %130

130:                                              ; preds = %129, %97
  br label %131

131:                                              ; preds = %130, %70
  br label %132

132:                                              ; preds = %131
  %133 = load i32, i32* %4, align 4
  %134 = add nsw i32 %133, 1
  store i32 %134, i32* %4, align 4
  br label %22

135:                                              ; preds = %22
  store i32 0, i32* %4, align 4
  br label %136

136:                                              ; preds = %244, %135
  %137 = load i32, i32* %4, align 4
  %138 = load i32, i32* %3, align 4
  %139 = icmp slt i32 %137, %138
  br i1 %139, label %140, label %247

140:                                              ; preds = %136
  %141 = load i32, i32* %4, align 4
  %142 = sext i32 %141 to i64
  %143 = getelementptr inbounds [100 x i32], [100 x i32]* %6, i64 0, i64 %142
  %144 = load i32, i32* %143, align 4
  %145 = icmp eq i32 %144, 1
  br i1 %145, label %146, label %172

146:                                              ; preds = %140
  store i32 0, i32* %5, align 4
  br label %147

147:                                              ; preds = %167, %146
  %148 = load i32, i32* %5, align 4
  %149 = sext i32 %148 to i64
  %150 = load i32, i32* %4, align 4
  %151 = sext i32 %150 to i64
  %152 = getelementptr inbounds [51 x [32 x i8]], [51 x [32 x i8]]* %2, i64 0, i64 %151
  %153 = getelementptr inbounds [32 x i8], [32 x i8]* %152, i64 0, i64 0
  %154 = call i64 @strlen(i8* %153) #3
  %155 = sub i64 %154, 3
  %156 = icmp ult i64 %149, %155
  br i1 %156, label %157, label %170

157:                                              ; preds = %147
  %158 = load i32, i32* %4, align 4
  %159 = sext i32 %158 to i64
  %160 = getelementptr inbounds [51 x [32 x i8]], [51 x [32 x i8]]* %2, i64 0, i64 %159
  %161 = load i32, i32* %5, align 4
  %162 = sext i32 %161 to i64
  %163 = getelementptr inbounds [32 x i8], [32 x i8]* %160, i64 0, i64 %162
  %164 = load i8, i8* %163, align 1
  %165 = sext i8 %164 to i32
  %166 = call i32 (i8*, ...) @printf(i8* getelementptr inbounds ([3 x i8], [3 x i8]* @.str.2, i64 0, i64 0), i32 %165)
  br label %167

167:                                              ; preds = %157
  %168 = load i32, i32* %5, align 4
  %169 = add nsw i32 %168, 1
  store i32 %169, i32* %5, align 4
  br label %147

170:                                              ; preds = %147
  %171 = call i32 (i8*, ...) @printf(i8* getelementptr inbounds ([2 x i8], [2 x i8]* @.str.3, i64 0, i64 0))
  br label %243

172:                                              ; preds = %140
  %173 = load i32, i32* %4, align 4
  %174 = sext i32 %173 to i64
  %175 = getelementptr inbounds [100 x i32], [100 x i32]* %6, i64 0, i64 %174
  %176 = load i32, i32* %175, align 4
  %177 = icmp eq i32 %176, 2
  br i1 %177, label %184, label %178

178:                                              ; preds = %172
  %179 = load i32, i32* %4, align 4
  %180 = sext i32 %179 to i64
  %181 = getelementptr inbounds [100 x i32], [100 x i32]* %6, i64 0, i64 %180
  %182 = load i32, i32* %181, align 4
  %183 = icmp eq i32 %182, 3
  br i1 %183, label %184, label %210

184:                                              ; preds = %178, %172
  store i32 0, i32* %5, align 4
  br label %185

185:                                              ; preds = %205, %184
  %186 = load i32, i32* %5, align 4
  %187 = sext i32 %186 to i64
  %188 = load i32, i32* %4, align 4
  %189 = sext i32 %188 to i64
  %190 = getelementptr inbounds [51 x [32 x i8]], [51 x [32 x i8]]* %2, i64 0, i64 %189
  %191 = getelementptr inbounds [32 x i8], [32 x i8]* %190, i64 0, i64 0
  %192 = call i64 @strlen(i8* %191) #3
  %193 = sub i64 %192, 2
  %194 = icmp ult i64 %187, %193
  br i1 %194, label %195, label %208

195:                                              ; preds = %185
  %196 = load i32, i32* %4, align 4
  %197 = sext i32 %196 to i64
  %198 = getelementptr inbounds [51 x [32 x i8]], [51 x [32 x i8]]* %2, i64 0, i64 %197
  %199 = load i32, i32* %5, align 4
  %200 = sext i32 %199 to i64
  %201 = getelementptr inbounds [32 x i8], [32 x i8]* %198, i64 0, i64 %200
  %202 = load i8, i8* %201, align 1
  %203 = sext i8 %202 to i32
  %204 = call i32 (i8*, ...) @printf(i8* getelementptr inbounds ([3 x i8], [3 x i8]* @.str.2, i64 0, i64 0), i32 %203)
  br label %205

205:                                              ; preds = %195
  %206 = load i32, i32* %5, align 4
  %207 = add nsw i32 %206, 1
  store i32 %207, i32* %5, align 4
  br label %185

208:                                              ; preds = %185
  %209 = call i32 (i8*, ...) @printf(i8* getelementptr inbounds ([2 x i8], [2 x i8]* @.str.3, i64 0, i64 0))
  br label %242

210:                                              ; preds = %178
  %211 = load i32, i32* %4, align 4
  %212 = sext i32 %211 to i64
  %213 = getelementptr inbounds [100 x i32], [100 x i32]* %6, i64 0, i64 %212
  %214 = load i32, i32* %213, align 4
  %215 = icmp eq i32 %214, 4
  br i1 %215, label %216, label %241

216:                                              ; preds = %210
  store i32 0, i32* %5, align 4
  br label %217

217:                                              ; preds = %236, %216
  %218 = load i32, i32* %5, align 4
  %219 = sext i32 %218 to i64
  %220 = load i32, i32* %4, align 4
  %221 = sext i32 %220 to i64
  %222 = getelementptr inbounds [51 x [32 x i8]], [51 x [32 x i8]]* %2, i64 0, i64 %221
  %223 = getelementptr inbounds [32 x i8], [32 x i8]* %222, i64 0, i64 0
  %224 = call i64 @strlen(i8* %223) #3
  %225 = icmp ult i64 %219, %224
  br i1 %225, label %226, label %239

226:                                              ; preds = %217
  %227 = load i32, i32* %4, align 4
  %228 = sext i32 %227 to i64
  %229 = getelementptr inbounds [51 x [32 x i8]], [51 x [32 x i8]]* %2, i64 0, i64 %228
  %230 = load i32, i32* %5, align 4
  %231 = sext i32 %230 to i64
  %232 = getelementptr inbounds [32 x i8], [32 x i8]* %229, i64 0, i64 %231
  %233 = load i8, i8* %232, align 1
  %234 = sext i8 %233 to i32
  %235 = call i32 (i8*, ...) @printf(i8* getelementptr inbounds ([3 x i8], [3 x i8]* @.str.2, i64 0, i64 0), i32 %234)
  br label %236

236:                                              ; preds = %226
  %237 = load i32, i32* %5, align 4
  %238 = add nsw i32 %237, 1
  store i32 %238, i32* %5, align 4
  br label %217

239:                                              ; preds = %217
  %240 = call i32 (i8*, ...) @printf(i8* getelementptr inbounds ([2 x i8], [2 x i8]* @.str.3, i64 0, i64 0))
  br label %241

241:                                              ; preds = %239, %210
  br label %242

242:                                              ; preds = %241, %208
  br label %243

243:                                              ; preds = %242, %170
  br label %244

244:                                              ; preds = %243
  %245 = load i32, i32* %4, align 4
  %246 = add nsw i32 %245, 1
  store i32 %246, i32* %4, align 4
  br label %136

247:                                              ; preds = %136
  ret i32 0
}

declare dso_local i32 @__isoc99_scanf(i8*, ...) #1

; Function Attrs: nounwind readonly
declare dso_local i64 @strlen(i8*) #2

declare dso_local i32 @printf(i8*, ...) #1


!llvm.module.flags = !{!0}
!llvm.ident = !{!1}

!0 = !{i32 1, !"wchar_size", i32 4}
!1 = !{!"clang version 10.0.0-4ubuntu1 "}
